target datalayout = "e-m:e-p270:32:32-p271:32:32-p272:64:64-i64:64-i128:128-f80:128-n8:16:32:64-S128"
target triple = "x86_64-pc-linux-gnu"

%struct.ImGuiContext = type { i8, i8, %struct.ImGuiIO, %struct.ImGuiPlatformIO, %struct.ImGuiStyle, ptr, float, float, float, float, %struct.ImDrawListSharedData, double, i32, i32, i32, i32, i8, i8, i8, i8, ptr, [16 x i8], %struct.ImVector.1, %struct.ImVector.1, i32, i32, %struct.ImVector.2, %struct.ImVector.2, %struct.ImVector.2, %struct.ImVector.3, %struct.ImGuiStorage, i32, float, i32, ptr, ptr, ptr, ptr, ptr, ptr, %struct.ImVec2, i32, i32, float, %struct.ImVec2, %struct.ImVec2, i32, i32, i32, i32, i32, float, float, i8, i8, i8, i32, i32, float, i8, i8, i8, i8, i8, i8, i8, i8, %struct.ImVec2, ptr, i32, i32, %struct.ImGuiDeactivatedItemData, %struct.ImGuiDataTypeStorage, i32, float, double, double, double, %struct.ImBitArray, [154 x %struct.ImGuiKeyOwnerData], %struct.ImGuiKeyRoutingTable, i32, i8, i32, i32, i32, i32, %struct.ImGuiNextItemData, %struct.ImGuiLastItemData, %struct.ImGuiNextWindowData, i8, i32, %struct.ImVector.6, %struct.ImVector.7, %struct.ImVector.8, %struct.ImVector.9, %struct.ImVector.10, %struct.ImVector.11, %struct.ImVector.12, %struct.ImVector.12, %struct.ImVector.13, %struct.ImVector.14, i8, i8, i8, i8, i32, ptr, i32, i32, i32, i32, i32, i32, %struct.ImVector.9, i32, float, i32, i32, i32, i64, i8, i8, i8, i8, %struct.ImGuiNavItemData, i8, i8, i8, i32, i32, i32, i32, i32, i32, %struct.ImRect, %struct.ImRect, i32, i32, i32, %struct.ImGuiNavItemData, %struct.ImGuiNavItemData, %struct.ImGuiNavItemData, %struct.ImGuiNavItemData, i32, i32, i32, i32, i8, i8, i32, i32, ptr, ptr, ptr, float, float, i8, i32, %struct.ImVec2, %struct.ImVec2, float, i8, i8, i8, i32, i32, i32, [4 x i8], %struct.ImGuiPayload, %struct.ImRect, %struct.ImRect, i32, i32, float, i32, i32, i32, i32, %struct.ImVector.15, [16 x i8], i32, %struct.ImVector.16, ptr, i32, i32, %struct.ImVector.17, %struct.ImPool, %struct.ImVector.19, %struct.ImVector.20, ptr, %struct.ImPool.21, %struct.ImVector.23, %struct.ImVector.24, %struct.ImGuiBoxSelectState, ptr, i32, %struct.ImVector.25, %struct.ImPool.26, i32, i32, float, float, i32, i32, i32, float, %struct.ImVec2, %struct.ImGuiInputTextState, %struct.ImGuiInputTextDeactivatedState, %struct.ImFont, i32, %struct.ImGuiDataTypeStorage, i32, i32, i32, i32, i32, float, float, i32, %struct.ImVec4, %struct.ImGuiComboPreviewData, %struct.ImRect, i8, i16, float, float, float, i8, i8, float, float, float, i16, i16, ptr, %struct.ImVector.28, %struct.ImVector.30, %struct.ImGuiTypingSelectState, %struct.ImGuiPlatformImeData, %struct.ImGuiPlatformImeData, i8, float, %struct.ImGuiTextBuffer, %struct.ImVector.31, %struct.ImChunkStream, %struct.ImChunkStream.32, %struct.ImVector.33, i32, [10 x ptr], i8, i32, ptr, ptr, %struct.ImGuiTextBuffer, ptr, ptr, float, i8, i32, i32, i32, ptr, ptr, %struct.ImVec2, i8, i32, %struct.ImGuiErrorRecoveryState, ptr, i32, i32, %struct.ImGuiTextBuffer, %struct.ImGuiTextIndex, i32, i32, i8, i8, i8, i32, i8, i8, i8, i32, float, %struct.ImVec4, %struct.ImGuiMetricsConfig, %struct.ImGuiIDStackTool, %struct.ImGuiDebugAllocInfo, [60 x float], i32, i32, float, i32, i32, i32, %struct.ImVector.28, [64 x i8] }
%struct.ImGuiIO = type { i32, i32, %struct.ImVec2, float, float, ptr, ptr, ptr, ptr, float, i8, ptr, %struct.ImVec2, i8, i8, i8, i8, i8, i8, i8, i8, i8, i8, i8, i8, i8, i8, i8, i8, i8, float, float, float, float, float, float, i8, i8, i8, i8, i8, i8, i8, i8, i8, i8, ptr, ptr, ptr, ptr, ptr, i8, i8, i8, i8, i8, i8, i8, float, i32, i32, i32, i32, %struct.ImVec2, ptr, %struct.ImVec2, [5 x i8], float, float, i32, i8, i8, i8, i8, i32, [154 x %struct.ImGuiKeyData], i8, %struct.ImVec2, [5 x %struct.ImVec2], [5 x double], [5 x i8], [5 x i8], [5 x i16], [5 x i16], [5 x i8], [5 x double], [5 x i8], [5 x i8], i8, i8, [5 x float], [5 x float], [5 x float], float, i8, i8, i16, %struct.ImVector, ptr, ptr, ptr }
%struct.ImGuiKeyData = type { i8, float, float, float }
%struct.ImVector = type { i32, i32, ptr }
%struct.ImGuiPlatformIO = type { ptr, ptr, ptr, ptr, ptr, ptr, ptr, i16, ptr }
%struct.ImGuiStyle = type { float, float, %struct.ImVec2, float, float, float, %struct.ImVec2, %struct.ImVec2, i32, float, float, float, float, %struct.ImVec2, float, float, %struct.ImVec2, %struct.ImVec2, %struct.ImVec2, %struct.ImVec2, float, float, float, float, float, float, float, float, float, float, float, float, float, float, %struct.ImVec2, i32, %struct.ImVec2, %struct.ImVec2, float, %struct.ImVec2, %struct.ImVec2, %struct.ImVec2, %struct.ImVec2, float, i8, i8, i8, float, float, [56 x %struct.ImVec4], float, float, float, i32, i32 }
%struct.ImDrawListSharedData = type <{ %struct.ImVec2, ptr, ptr, float, float, float, float, float, i32, %struct.ImVec4, %struct.ImVector.0, [48 x %struct.ImVec2], float, [64 x i8], [4 x i8] }>
%struct.ImVector.0 = type { i32, i32, ptr }
%struct.ImVector.1 = type { i32, i32, ptr }
%struct.ImVector.2 = type { i32, i32, ptr }
%struct.ImVector.3 = type { i32, i32, ptr }
%struct.ImGuiStorage = type { %struct.ImVector.4 }
%struct.ImVector.4 = type { i32, i32, ptr }
%struct.ImGuiDeactivatedItemData = type { i32, i32, i8, i8 }
%struct.ImBitArray = type { [5 x i32] }
%struct.ImGuiKeyOwnerData = type <{ i32, i32, i8, i8, [2 x i8] }>
%struct.ImGuiKeyRoutingTable = type { [154 x i16], %struct.ImVector.5, %struct.ImVector.5 }
%struct.ImVector.5 = type { i32, i32, ptr }
%struct.ImGuiNextItemData = type <{ i32, i32, i32, [4 x i8], i64, float, i32, i32, i8, i8, %struct.ImGuiDataTypeStorage, [2 x i8], i32, [4 x i8] }>
%struct.ImGuiLastItemData = type { i32, i32, i32, %struct.ImRect, %struct.ImRect, %struct.ImRect, %struct.ImRect, i32 }
%struct.ImGuiNextWindowData = type { i32, i32, i32, i32, %struct.ImVec2, %struct.ImVec2, %struct.ImVec2, %struct.ImVec2, %struct.ImVec2, i32, i32, i8, %struct.ImRect, ptr, ptr, float, %struct.ImVec2, i32 }
%struct.ImVector.6 = type { i32, i32, ptr }
%struct.ImVector.7 = type { i32, i32, ptr }
%struct.ImVector.8 = type { i32, i32, ptr }
%struct.ImVector.10 = type { i32, i32, ptr }
%struct.ImVector.11 = type { i32, i32, ptr }
%struct.ImVector.12 = type { i32, i32, ptr }
%struct.ImVector.13 = type { i32, i32, ptr }
%struct.ImVector.14 = type { i32, i32, ptr }
%struct.ImVector.9 = type { i32, i32, ptr }
%struct.ImGuiNavItemData = type { ptr, i32, i32, %struct.ImRect, i32, float, float, float, i64 }
%struct.ImGuiPayload = type <{ ptr, i32, i32, i32, i32, [33 x i8], i8, i8, [5 x i8] }>
%struct.ImVector.15 = type { i32, i32, ptr }
%struct.ImVector.16 = type { i32, i32, ptr }
%struct.ImVector.17 = type { i32, i32, ptr }
%struct.ImPool = type { %struct.ImVector.18, %struct.ImGuiStorage, i32, i32 }
%struct.ImVector.18 = type { i32, i32, ptr }
%struct.ImVector.19 = type { i32, i32, ptr }
%struct.ImVector.20 = type { i32, i32, ptr }
%struct.ImPool.21 = type { %struct.ImVector.22, %struct.ImGuiStorage, i32, i32 }
%struct.ImVector.22 = type { i32, i32, ptr }
%struct.ImVector.23 = type { i32, i32, ptr }
%struct.ImVector.24 = type { i32, i32, ptr }
%struct.ImGuiBoxSelectState = type <{ i32, i8, i8, i8, i8, i8, i16, i8, %struct.ImVec2, %struct.ImVec2, %struct.ImVec2, [4 x i8], ptr, i8, [3 x i8], %struct.ImRect, %struct.ImRect, %struct.ImRect, [4 x i8] }>
%struct.ImVector.25 = type { i32, i32, ptr }
%struct.ImPool.26 = type { %struct.ImVector.27, %struct.ImGuiStorage, i32, i32 }
%struct.ImVector.27 = type { i32, i32, ptr }
%struct.ImGuiInputTextState = type <{ ptr, ptr, i32, i32, i32, [4 x i8], ptr, %struct.ImVector.28, %struct.ImVector.28, %struct.ImVector.28, i32, %struct.ImVec2, float, i8, i8, i8, i8, i32, i32, [4 x i8] }>
%struct.ImGuiInputTextDeactivatedState = type { i32, %struct.ImVector.28 }
%struct.ImFont = type <{ %struct.ImVector.19, float, float, %struct.ImVector, %struct.ImVector.29, ptr, ptr, ptr, i16, i16, i16, i16, float, float, float, float, float, i32, i8, [1 x i8], [6 x i8] }>
%struct.ImVector.29 = type { i32, i32, ptr }
%struct.ImGuiDataTypeStorage = type { [8 x i8] }
%struct.ImGuiComboPreviewData = type { %struct.ImRect, %struct.ImVec2, %struct.ImVec2, %struct.ImVec2, float, i32 }
%struct.ImRect = type { %struct.ImVec2, %struct.ImVec2 }
%struct.ImVector.30 = type { i32, i32, ptr }
%struct.ImGuiTypingSelectState = type <{ %struct.ImGuiTypingSelectRequest, [64 x i8], i32, i32, float, i8, [3 x i8] }>
%struct.ImGuiTypingSelectRequest = type { i32, i32, ptr, i8, i8, i8 }
%struct.ImGuiPlatformImeData = type { i8, %struct.ImVec2, float }
%struct.ImVector.31 = type { i32, i32, ptr }
%struct.ImChunkStream = type { %struct.ImVector.28 }
%struct.ImChunkStream.32 = type { %struct.ImVector.28 }
%struct.ImVector.33 = type { i32, i32, ptr }
%struct.ImVec2 = type { float, float }
%struct.ImGuiErrorRecoveryState = type { i16, i16, i16, i16, i16, i16, i16, i16, i16, i16, i16 }
%struct.ImGuiTextBuffer = type { %struct.ImVector.28 }
%struct.ImGuiTextIndex = type <{ %struct.ImVector.10, i32, [4 x i8] }>
%struct.ImVec4 = type { float, float, float, float }
%struct.ImGuiMetricsConfig = type { i8, i8, i8, i8, i8, i8, i8, i8, i8, i32, i32, i32, i32 }
%struct.ImGuiIDStackTool = type { i32, i32, i32, %struct.ImVector.34, i8, float }
%struct.ImVector.34 = type { i32, i32, ptr }
%struct.ImGuiDebugAllocInfo = type { i32, i32, i16, [6 x %struct.ImGuiDebugAllocEntry] }
%struct.ImGuiDebugAllocEntry = type { i32, i16, i16 }
%struct.ImVector.28 = type { i32, i32, ptr }
%struct.ImDrawListSplitter = type { i32, i32, %struct.ImVector.20 }
%struct.ImVec1 = type { float }
%struct.ImGuiTableInstanceData = type { i32, float, float, float, i32, i32 }
%struct.ImGuiWindow = type <{ ptr, ptr, i32, i32, i32, [4 x i8], ptr, %struct.ImVec2, %struct.ImVec2, %struct.ImVec2, %struct.ImVec2, %struct.ImVec2, %struct.ImVec2, %struct.ImVec2, float, float, float, float, float, float, float, float, float, float, i32, i32, i32, i32, %struct.ImVec2, %struct.ImVec2, %struct.ImVec2, %struct.ImVec2, %struct.ImVec2, %struct.ImVec2, i8, i8, i8, i8, i8, i8, i8, i8, i8, i8, i8, i8, i8, i8, i8, i8, i16, i16, i16, i16, i16, i8, i8, i8, [3 x i8], i32, i8, i8, i8, i8, i32, %struct.ImVec2, %struct.ImVec2, [4 x i8], %struct.ImVector.30, %struct.ImGuiWindowTempData, %struct.ImRect, %struct.ImRect, %struct.ImRect, %struct.ImRect, %struct.ImRect, %struct.ImRect, %struct.ImRect, %struct.ImVec2ih, %struct.ImVec2ih, i32, float, float, [4 x i8], %struct.ImGuiStorage, %struct.ImVector.35, float, float, float, i32, ptr, %struct.ImDrawList, ptr, ptr, ptr, ptr, ptr, ptr, ptr, ptr, [2 x i32], [2 x %struct.ImRect], [2 x %struct.ImVec2], i32, i32, i32, i8, [3 x i8] }>
%struct.ImGuiWindowTempData = type { %struct.ImVec2, %struct.ImVec2, %struct.ImVec2, %struct.ImVec2, %struct.ImVec2, %struct.ImVec2, %struct.ImVec2, float, float, i8, i8, %struct.ImVec1, %struct.ImVec1, %struct.ImVec1, %struct.ImVec2, i32, i16, i16, i8, i8, i8, i8, %struct.ImVec2, %struct.ImGuiMenuColumns, i32, i32, %struct.ImVector.2, ptr, ptr, i32, i32, i32, i32, i32, i32, float, float, %struct.ImVector.19, %struct.ImVector.19 }
%struct.ImGuiMenuColumns = type <{ i32, i32, i16, i16, i16, i16, i16, [4 x i16], [2 x i8] }>
%struct.ImVec2ih = type { i16, i16 }
%struct.ImVector.35 = type { i32, i32, ptr }
%struct.ImDrawList = type { %struct.ImVector.36, %struct.ImVector, %struct.ImVector.37, i32, i32, ptr, ptr, ptr, %struct.ImVector.0, %struct.ImDrawCmdHeader, %struct.ImDrawListSplitter, %struct.ImVector.38, %struct.ImVector.39, %struct.ImVector.15, float, ptr }
%struct.ImVector.36 = type { i32, i32, ptr }
%struct.ImVector.37 = type { i32, i32, ptr }
%struct.ImDrawCmdHeader = type <{ %struct.ImVec4, i64, i32, [4 x i8] }>
%struct.ImVector.38 = type { i32, i32, ptr }
%struct.ImVector.39 = type { i32, i32, ptr }
%struct.ImGuiTable = type <{ i32, i32, ptr, ptr, %struct.ImSpan, %struct.ImSpan.41, %struct.ImSpan.42, ptr, ptr, ptr, i32, i32, i32, i32, i32, i32, i16, i16, float, float, float, float, float, float, i32, i32, [2 x i32], i32, i32, float, float, float, float, float, float, float, float, float, float, float, float, float, float, float, float, float, %struct.ImRect, %struct.ImRect, %struct.ImRect, %struct.ImRect, %struct.ImRect, %struct.ImRect, %struct.ImRect, %struct.ImRect, %struct.ImRect, ptr, ptr, %struct.ImGuiTextBuffer, ptr, %struct.ImGuiTableInstanceData, %struct.ImVector.43, %struct.ImGuiTableColumnSortSpecs, [4 x i8], %struct.ImVector.44, %struct.ImGuiTableSortSpecs, i16, i16, i16, i16, i16, i16, i16, i16, i16, i16, i16, i16, i16, i16, i16, i16, i16, i16, i16, i16, i16, i16, i16, i16, i16, i16, i16, i8, i8, i8, i8, i8, i8, i8, i8, i8, i8, i8, i8, i8, i8, i8, i8, i8, i8, i8, i8, i8, [5 x i8] }>
%struct.ImSpan = type { ptr, ptr }
%struct.ImSpan.41 = type { ptr, ptr }
%struct.ImSpan.42 = type { ptr, ptr }
%struct.ImVector.43 = type { i32, i32, ptr }
%struct.ImGuiTableColumnSortSpecs = type <{ i32, i16, i16, i8, [3 x i8] }>
%struct.ImVector.44 = type { i32, i32, ptr }
%struct.ImGuiTableSortSpecs = type <{ ptr, i32, i8, [3 x i8] }>

@GImGui = external global ptr, align 8

; Function Attrs: inlinehint mustprogress nounwind uwtable
define internal noundef float @_ZL5ImMaxIfET_S0_S0_(float noundef %0, float noundef %1) #4 {
  %3 = alloca float, align 4
  %4 = alloca float, align 4
  store float %0, ptr %3, align 4, !tbaa !16
  store float %1, ptr %4, align 4, !tbaa !16
  %5 = load float, ptr %3, align 4, !tbaa !16
  %6 = load float, ptr %4, align 4, !tbaa !16
  %7 = fcmp oge float %5, %6
  br i1 %7, label %8, label %10

8:                                                ; preds = %2
  %9 = load float, ptr %3, align 4, !tbaa !16
  br label %12

10:                                               ; preds = %2
  %11 = load float, ptr %4, align 4, !tbaa !16
  br label %12

12:                                               ; preds = %10, %8
  %13 = phi float [ %9, %8 ], [ %11, %10 ]
  ret float %13
}

; Function Attrs: mustprogress uwtable
define void @_ZN5ImGui12TableNextRowEif(i32 noundef %0, float noundef %1) #0 {
  %3 = alloca i32, align 4
  %4 = alloca float, align 4
  %5 = alloca ptr, align 8
  %6 = alloca ptr, align 8
  store i32 %0, ptr %3, align 4, !tbaa !3
  store float %1, ptr %4, align 4, !tbaa !16
  call void @llvm.lifetime.start.p0(i64 8, ptr %5) #8
  %7 = load ptr, ptr @GImGui, align 8, !tbaa !7
  store ptr %7, ptr %5, align 8, !tbaa !7
  call void @llvm.lifetime.start.p0(i64 8, ptr %6) #8
  %8 = load ptr, ptr %5, align 8, !tbaa !7
  %9 = getelementptr inbounds nuw %struct.ImGuiContext, ptr %8, i32 0, i32 183
  %10 = load ptr, ptr %9, align 8, !tbaa !257
  store ptr %10, ptr %6, align 8, !tbaa !167
  %11 = load ptr, ptr %6, align 8, !tbaa !167
  %12 = getelementptr inbounds nuw %struct.ImGuiTable, ptr %11, i32 0, i32 93
  %13 = load i8, ptr %12, align 1, !tbaa !201, !range !67, !noundef !68
  %14 = trunc i8 %13 to i1
  br i1 %14, label %17, label %15

15:                                               ; preds = %2
  %16 = load ptr, ptr %6, align 8, !tbaa !167
  call void @_ZN5ImGui17TableUpdateLayoutEP10ImGuiTable(ptr noundef %16)
  br label %17

17:                                               ; preds = %15, %2
  %18 = load ptr, ptr %6, align 8, !tbaa !167
  %19 = getelementptr inbounds nuw %struct.ImGuiTable, ptr %18, i32 0, i32 94
  %20 = load i8, ptr %19, align 8, !tbaa !495, !range !67, !noundef !68
  %21 = trunc i8 %20 to i1
  br i1 %21, label %22, label %24

22:                                               ; preds = %17
  %23 = load ptr, ptr %6, align 8, !tbaa !167
  call void @_ZN5ImGui11TableEndRowEP10ImGuiTable(ptr noundef %23)
  br label %24

24:                                               ; preds = %22, %17
  %25 = load ptr, ptr %6, align 8, !tbaa !167
  %26 = getelementptr inbounds nuw %struct.ImGuiTable, ptr %25, i32 0, i32 24
  %27 = load i32, ptr %26, align 4
  %28 = shl i32 %27, 16
  %29 = ashr i32 %28, 16
  %30 = load ptr, ptr %6, align 8, !tbaa !167
  %31 = getelementptr inbounds nuw %struct.ImGuiTable, ptr %30, i32 0, i32 24
  %32 = load i32, ptr %31, align 4
  %33 = and i32 %29, 65535
  %34 = shl i32 %33, 16
  %35 = and i32 %32, 65535
  %36 = or i32 %35, %34
  store i32 %36, ptr %31, align 4
  %37 = load i32, ptr %3, align 4, !tbaa !3
  %38 = load ptr, ptr %6, align 8, !tbaa !167
  %39 = getelementptr inbounds nuw %struct.ImGuiTable, ptr %38, i32 0, i32 24
  %40 = load i32, ptr %39, align 4
  %41 = and i32 %37, 65535
  %42 = and i32 %40, -65536
  %43 = or i32 %42, %41
  store i32 %43, ptr %39, align 4
  %44 = load ptr, ptr %5, align 8, !tbaa !7
  %45 = getelementptr inbounds nuw %struct.ImGuiContext, ptr %44, i32 0, i32 4
  %46 = getelementptr inbounds nuw %struct.ImGuiStyle, ptr %45, i32 0, i32 18
  %47 = getelementptr inbounds nuw %struct.ImVec2, ptr %46, i32 0, i32 1
  %48 = load float, ptr %47, align 4, !tbaa !465
  %49 = load ptr, ptr %6, align 8, !tbaa !167
  %50 = getelementptr inbounds nuw %struct.ImGuiTable, ptr %49, i32 0, i32 21
  store float %48, ptr %50, align 8, !tbaa !244
  %51 = load float, ptr %4, align 4, !tbaa !16
  %52 = load ptr, ptr %6, align 8, !tbaa !167
  %53 = getelementptr inbounds nuw %struct.ImGuiTable, ptr %52, i32 0, i32 20
  store float %51, ptr %53, align 4, !tbaa !572
  %54 = load ptr, ptr %6, align 8, !tbaa !167
  call void @_ZN5ImGui13TableBeginRowEP10ImGuiTable(ptr noundef %54)
  %55 = load ptr, ptr %6, align 8, !tbaa !167
  %56 = getelementptr inbounds nuw %struct.ImGuiTable, ptr %55, i32 0, i32 21
  %57 = load float, ptr %56, align 8, !tbaa !244
  %58 = load ptr, ptr %6, align 8, !tbaa !167
  %59 = getelementptr inbounds nuw %struct.ImGuiTable, ptr %58, i32 0, i32 19
  %60 = load float, ptr %59, align 8, !tbaa !241
  %61 = call float @llvm.fmuladd.f32(float %57, float 2.000000e+00, float %60)
  store float %61, ptr %59, align 8, !tbaa !241
  %62 = load ptr, ptr %6, align 8, !tbaa !167
  %63 = getelementptr inbounds nuw %struct.ImGuiTable, ptr %62, i32 0, i32 19
  %64 = load float, ptr %63, align 8, !tbaa !241
  %65 = load ptr, ptr %6, align 8, !tbaa !167
  %66 = getelementptr inbounds nuw %struct.ImGuiTable, ptr %65, i32 0, i32 18
  %67 = load float, ptr %66, align 4, !tbaa !242
  %68 = load float, ptr %4, align 4, !tbaa !16
  %69 = fadd float %67, %68
  %70 = call noundef float @_ZL5ImMaxIfET_S0_S0_(float noundef %64, float noundef %69)
  %71 = load ptr, ptr %6, align 8, !tbaa !167
  %72 = getelementptr inbounds nuw %struct.ImGuiTable, ptr %71, i32 0, i32 19
  store float %70, ptr %72, align 8, !tbaa !241
  %73 = load ptr, ptr %6, align 8, !tbaa !167
  %74 = getelementptr inbounds nuw %struct.ImGuiTable, ptr %73, i32 0, i32 56
  %75 = load ptr, ptr %74, align 8, !tbaa !198
  %76 = getelementptr inbounds nuw %struct.ImGuiWindow, ptr %75, i32 0, i32 41
  store i8 1, ptr %76, align 1, !tbaa !20
  call void @llvm.lifetime.end.p0(i64 8, ptr %6) #8
  call void @llvm.lifetime.end.p0(i64 8, ptr %5) #8
  ret void
}