; Function Attrs: mustprogress uwtable
define void @_ZN5ImGui12TableNextRowEif(i32 noundef %0, float noundef %1) local_unnamed_addr #0 {
  %3 = load ptr, ptr @GImGui, align 8, !tbaa !3
  %4 = getelementptr inbounds nuw i8, ptr %3, i64 8640
  %5 = load ptr, ptr %4, align 8, !tbaa !266
  %6 = getelementptr inbounds nuw i8, ptr %5, i64 567
  %7 = load i8, ptr %6, align 1, !tbaa !210, !range !153, !noundef !154
  %8 = trunc nuw i8 %7 to i1
  br i1 %8, label %10, label %9

9:                                                ; preds = %2
  tail call void @_ZN5ImGui17TableUpdateLayoutEP10ImGuiTable(ptr noundef nonnull %5)
  br label %10

10:                                               ; preds = %9, %2
  %11 = getelementptr inbounds nuw i8, ptr %5, i64 568
  %12 = load i8, ptr %11, align 8, !tbaa !465, !range !153, !noundef !154
  %13 = trunc nuw i8 %12 to i1
  br i1 %13, label %14, label %15

14:                                               ; preds = %10
  tail call void @_ZN5ImGui11TableEndRowEP10ImGuiTable(ptr noundef nonnull %5)
  br label %15

15:                                               ; preds = %14, %10
  %16 = getelementptr inbounds nuw i8, ptr %5, i64 148
  %17 = load i32, ptr %16, align 4
  %18 = shl i32 %17, 16
  %19 = and i32 %0, 65535
  %20 = or disjoint i32 %18, %19
  store i32 %20, ptr %16, align 4
  %21 = getelementptr inbounds nuw i8, ptr %3, i64 3196
  %22 = load float, ptr %21, align 4, !tbaa !425
  %23 = getelementptr inbounds nuw i8, ptr %5, i64 136
  store float %22, ptr %23, align 8, !tbaa !257
  %24 = getelementptr inbounds nuw i8, ptr %5, i64 132
  store float %1, ptr %24, align 4, !tbaa !541
  tail call void @_ZN5ImGui13TableBeginRowEP10ImGuiTable(ptr noundef nonnull %5)
  %25 = load float, ptr %23, align 8, !tbaa !257
  %26 = getelementptr inbounds nuw i8, ptr %5, i64 128
  %27 = load float, ptr %26, align 8, !tbaa !254
  %28 = tail call float @llvm.fmuladd.f32(float %25, float 2.000000e+00, float %27)
  %29 = getelementptr inbounds nuw i8, ptr %5, i64 124
  %30 = load float, ptr %29, align 4, !tbaa !255
  %31 = fadd float %1, %30
  %32 = fcmp oge float %28, %31
  %33 = select i1 %32, float %28, float %31
  store float %33, ptr %26, align 8, !tbaa !254
  %34 = getelementptr inbounds nuw i8, ptr %5, i64 392
  %35 = load ptr, ptr %34, align 8, !tbaa !207
  %36 = getelementptr inbounds nuw i8, ptr %35, i64 207
  store i8 1, ptr %36, align 1, !tbaa !152
  ret void
}